; Function Attrs: nounwind uwtable
define noalias ptr @av_buffersrc_parameters_alloc() local_unnamed_addr #0 {
  %1 = tail call noalias ptr @av_mallocz(i64 noundef 104) #6
  %.not = icmp eq ptr %1, null
  br i1 %.not, label %5, label %2

2:                                                ; preds = %0
  store i32 -1, ptr %1, align 8, !tbaa !4
  %3 = getelementptr inbounds nuw i8, ptr %1, i64 84
  store i32 0, ptr %3, align 4, !tbaa !15
  %4 = getelementptr inbounds nuw i8, ptr %1, i64 80
  store i32 2, ptr %4, align 8, !tbaa !16
  br label %5

5:                                                ; preds = %0, %2
  ret ptr %1
}